; Function Attrs: mustprogress nofree norecurse nosync nounwind willreturn memory(argmem: write) uwtable
define noundef i32 @_ZN10duckdb_lz419LZ4_setStreamDecodeEPNS_18LZ4_streamDecode_uEPKci(ptr noundef writeonly captures(none) initializes((0, 32)) %0, ptr noundef %1, i32 noundef %2) local_unnamed_addr #3 {
  %4 = sext i32 %2 to i64
  %5 = getelementptr inbounds nuw i8, ptr %0, i64 24
  store i64 %4, ptr %5, align 8, !tbaa !45
  %6 = getelementptr inbounds i8, ptr %1, i64 %4
  %7 = getelementptr inbounds nuw i8, ptr %0, i64 8
  store ptr %6, ptr %7, align 8, !tbaa !48
  store ptr null, ptr %0, align 8, !tbaa !49
  %8 = getelementptr inbounds nuw i8, ptr %0, i64 16
  store i64 0, ptr %8, align 8, !tbaa !50
  ret i32 1
}